target datalayout = "e-m:e-p270:32:32-p271:32:32-p272:64:64-i64:64-i128:128-f80:128-n8:16:32:64-S128"
target triple = "x86_64-pc-linux-gnu"

%"class.open3d::visualization::ViewControlWithCustomAnimation" = type { %"class.open3d::visualization::ViewControl.base", i32, %"class.open3d::visualization::ViewTrajectory", double, double }
%"class.open3d::visualization::ViewControl.base" = type { ptr, i32, i32, %"class.open3d::geometry::AxisAlignedBoundingBox", %"class.Eigen::Matrix", %"class.Eigen::Matrix", %"class.Eigen::Matrix", %"class.Eigen::Matrix", %"class.Eigen::Matrix", double, double, double, double, double, double, double, double, double, [8 x i8], %"class.Eigen::Matrix.18", %"class.Eigen::Matrix.18", %"class.Eigen::Matrix.18", %"class.Eigen::Matrix.18", %"class.Eigen::Matrix", %"class.Eigen::Matrix", %"class.Eigen::Matrix", %"class.Eigen::Matrix", %"class.Eigen::Matrix", double, double }
%"class.open3d::geometry::AxisAlignedBoundingBox" = type { %"class.open3d::geometry::Geometry3D", %"class.Eigen::Matrix", %"class.Eigen::Matrix", %"class.Eigen::Matrix" }
%"class.open3d::geometry::Geometry3D" = type { %"class.open3d::geometry::Geometry" }
%"class.open3d::geometry::Geometry" = type { ptr, i32, i32, %"class.std::__cxx11::basic_string" }
%"class.std::__cxx11::basic_string" = type { %"struct.std::__cxx11::basic_string<char>::_Alloc_hider", i64, %union.anon }
%"struct.std::__cxx11::basic_string<char>::_Alloc_hider" = type { ptr }
%union.anon = type { i64, [8 x i8] }
%"class.Eigen::Matrix.18" = type { %"class.Eigen::PlainObjectBase.19" }
%"class.Eigen::PlainObjectBase.19" = type { %"class.Eigen::DenseStorage.26" }
%"class.Eigen::DenseStorage.26" = type { %"struct.Eigen::internal::plain_array.27" }
%"struct.Eigen::internal::plain_array.27" = type { [16 x float] }
%"class.Eigen::Matrix" = type { %"class.Eigen::PlainObjectBase" }
%"class.Eigen::PlainObjectBase" = type { %"class.Eigen::DenseStorage" }
%"class.Eigen::DenseStorage" = type { %"struct.Eigen::internal::plain_array" }
%"struct.Eigen::internal::plain_array" = type { [3 x double] }
%"class.open3d::visualization::ViewTrajectory" = type { %"class.open3d::utility::IJsonConvertible", %"class.std::vector", i8, i32, %"class.std::vector.31" }
%"class.open3d::utility::IJsonConvertible" = type { ptr }
%"class.std::vector" = type { %"struct.std::_Vector_base" }
%"struct.std::_Vector_base" = type { %"struct.std::_Vector_base<open3d::visualization::ViewParameters, std::allocator<open3d::visualization::ViewParameters>>::_Vector_impl" }
%"struct.std::_Vector_base<open3d::visualization::ViewParameters, std::allocator<open3d::visualization::ViewParameters>>::_Vector_impl" = type { %"struct.std::_Vector_base<open3d::visualization::ViewParameters, std::allocator<open3d::visualization::ViewParameters>>::_Vector_impl_data" }
%"struct.std::_Vector_base<open3d::visualization::ViewParameters, std::allocator<open3d::visualization::ViewParameters>>::_Vector_impl_data" = type { ptr, ptr, ptr }
%"class.std::vector.31" = type { %"struct.std::_Vector_base.32" }
%"struct.std::_Vector_base.32" = type { %"struct.std::_Vector_base<Eigen::Matrix<double, 17, 4, 1>, Eigen::aligned_allocator<Eigen::Matrix<double, 17, 4, 1>>>::_Vector_impl" }
%"struct.std::_Vector_base<Eigen::Matrix<double, 17, 4, 1>, Eigen::aligned_allocator<Eigen::Matrix<double, 17, 4, 1>>>::_Vector_impl" = type { %"struct.std::_Vector_base<Eigen::Matrix<double, 17, 4, 1>, Eigen::aligned_allocator<Eigen::Matrix<double, 17, 4, 1>>>::_Vector_impl_data" }
%"struct.std::_Vector_base<Eigen::Matrix<double, 17, 4, 1>, Eigen::aligned_allocator<Eigen::Matrix<double, 17, 4, 1>>>::_Vector_impl_data" = type { ptr, ptr, ptr }

; Function Attrs: mustprogress ssp uwtable
define void @_ZN6open3d13visualization30ViewControlWithCustomAnimation5ResetEv(ptr noundef nonnull align 16 dereferenceable(816) %0) unnamed_addr #1 align 2 {
  %2 = alloca ptr, align 8
  store ptr %0, ptr %2, align 8, !tbaa !4
  %3 = load ptr, ptr %2, align 8
  %4 = getelementptr inbounds nuw %"class.open3d::visualization::ViewControlWithCustomAnimation", ptr %3, i32 0, i32 1
  %5 = load i32, ptr %4, align 8, !tbaa !11
  %6 = icmp eq i32 %5, 0
  br i1 %6, label %7, label %8

7:                                                ; preds = %1
  call void @_ZN6open3d13visualization11ViewControl5ResetEv(ptr noundef nonnull align 16 dereferenceable(728) %3)
  br label %8

8:                                                ; preds = %7, %1
  ret void
}