; Function Attrs: mustprogress ssp uwtable
define void @_ZN6open3d13visualization30ViewControlWithCustomAnimation5ResetEv(ptr noundef nonnull align 16 dereferenceable(816) %0) unnamed_addr #1 align 2 {
  %2 = getelementptr inbounds nuw i8, ptr %0, i64 728
  %3 = load i32, ptr %2, align 8, !tbaa !26
  %4 = icmp eq i32 %3, 0
  br i1 %4, label %5, label %6

5:                                                ; preds = %1
  tail call void @_ZN6open3d13visualization11ViewControl5ResetEv(ptr noundef nonnull align 16 dereferenceable(728) %0)
  br label %6

6:                                                ; preds = %5, %1
  ret void
}